Certificate:
    Data:
        Version: 3 (0x2)
        Serial Number:
            ba:38:46:3c:4e:4d:14:c9:71:01:da:e2:1a:93:da:57
        Signature Algorithm: sha256WithRSAEncryption
        Issuer: O=SCL, CN=SCL Root Certification Authority
        Validity
            Not Before: Dec 15 00:00:00 2019 GMT
            Not After : Dec 17 00:00:00 2029 GMT
        Subject: O=SCL, CN=SCL Root Certification Authority
        Subject Public Key Info:
            Public Key Algorithm: rsaEncryption
                RSA Public-Key: (4096 bit)
                Modulus:
                    00:d3:8f:8e:a0:95:99:8d:66:82:b6:97:72:36:21:
                    2c:96:0c:40:e8:a1:d4:9c:ed:b0:78:ba:c2:a0:a1:
                    77:60:6c:81:11:8d:e4:83:31:d0:8d:e0:c1:38:8a:
                    94:c6:74:aa:00:5b:b5:72:04:19:53:29:df:6c:85:
                    02:6a:b3:a0:d0:0c:6c:99:94:1f:2b:e7:46:e6:bb:
                    86:e3:e1:cb:89:0b:d4:3e:0c:bd:88:cf:4d:2f:0a:
                    6f:26:40:7f:87:8d:54:60:da:ef:22:67:ec:38:91:
                    7a:a5:13:96:59:2d:4d:49:ee:88:49:8e:08:17:68:
                    df:2a:09:a1:a3:b7:61:57:73:9c:02:3f:96:f3:93:
                    56:ae:61:35:74:53:7a:20:59:f0:15:b8:ff:10:d2:
                    77:92:05:76:f1:b0:6c:7f:e5:e9:46:fa:ca:c0:62:
                    cd:8e:4a:cc:1e:93:f3:58:76:45:18:62:41:9b:df:
                    a3:5b:79:d8:c4:df:b7:76:04:75:a5:06:61:1a:1f:
                    15:51:c1:0a:07:0a:b1:da:87:f4:85:9d:98:f0:ef:
                    d6:f9:9d:ad:82:67:dc:9c:33:40:5e:96:50:c0:e8:
                    1f:60:f5:13:05:0a:cf:c2:76:e7:f6:56:79:50:14:
                    e6:94:eb:df:3b:cd:9c:e7:d3:f6:66:24:45:d0:0c:
                    15:ee:8e:ca:07:56:e2:57:e4:79:8e:60:36:25:28:
                    a2:55:15:f1:4e:08:ab:a0:3b:ae:d3:13:10:9e:63:
                    f2:ab:c2:ab:37:6b:bc:68:e1:c3:9e:b8:f4:66:a4:
                    7b:04:0d:f8:2e:63:43:9b:97:e8:71:6c:1a:16:1a:
                    90:60:aa:a6:8a:bc:7c:d4:d1:81:4f:7f:1d:4a:50:
                    70:fc:bb:ff:dd:6b:2d:15:c1:ec:d0:bd:19:07:75:
                    aa:7a:81:54:9f:e6:a2:0c:13:6f:e8:2c:47:4e:2a:
                    cb:39:f9:4a:3f:9d:3c:e5:84:c7:81:a5:59:d3:5b:
                    a7:42:7d:b7:cd:9a:8f:f3:82:4f:5b:52:60:3c:68:
                    48:e1:99:64:6a:69:73:d4:e4:be:6f:95:2a:a6:24:
                    18:76:ca:b9:bb:f6:bb:d8:18:81:03:70:e0:fc:c1:
                    11:13:62:b8:4b:94:21:45:ff:b8:12:e7:cd:70:56:
                    42:e4:b4:9c:fa:a0:f1:d3:68:9d:7e:b6:60:76:7e:
                    52:0a:c5:d2:83:45:b6:1e:cf:fc:88:27:5c:93:6a:
                    c4:35:ea:e8:45:36:1a:52:3c:0b:d8:dc:cd:27:4a:
                    2e:cb:39:8c:af:1c:01:71:57:f5:6f:4a:71:8a:2c:
                    c9:ed:51:45:41:d1:9c:c2:eb:f1:61:e4:2f:39:fa:
                    cd:07:63
                Exponent: 65537 (0x10001)
        X509v3 extensions:
            X509v3 Basic Constraints: critical
                CA:TRUE
            X509v3 Key Usage: critical
                Certificate Sign, CRL Sign
            X509v3 Name Constraints: critical
                Permitted:
                  DNS:plaform.local
                  DNS:*.platform.local
                  DNS:aac.platform.local
                  DNS:nifi.platform.local
                  email:platform.local
                  email:platform.local

            X509v3 Subject Key Identifier: 
                1A:B5:0E:76:36:66:98:3D:5A:D2:2E:78:60:37:E0:55:80:BE:D2:F4
            X509v3 Subject Alternative Name: 
                URI:http://ca.platform.local/, email:certmaster@example.net
            X509v3 Authority Key Identifier: 
                keyid:1A:B5:0E:76:36:66:98:3D:5A:D2:2E:78:60:37:E0:55:80:BE:D2:F4

            X509v3 Issuer Alternative Name: 
                URI:http://ca.platform.local/, email:certmaster@example.net
            Authority Information Access: 
                CA Issuers - URI:http://ca.platfotm.local/certs/platform.local_Root_Certification_Authority.cert.pem

            X509v3 CRL Distribution Points: 

                Full Name:
                  URI:http://ca.platform.local/crl/platform.local_Root_Certification_Authority.crl

    Signature Algorithm: sha256WithRSAEncryption
         46:29:00:89:85:48:bc:3c:c9:17:bb:73:17:6c:8f:40:38:51:
         e3:4a:74:91:4d:2f:26:0c:60:59:15:19:79:f6:53:71:6d:24:
         3c:7f:00:11:74:db:d0:f4:52:a7:3c:84:84:18:e9:08:7d:a7:
         04:cd:ff:33:ec:12:2a:0f:7f:4a:b4:2b:c9:84:c7:f2:fb:9f:
         a5:d9:6f:84:74:e8:cc:4a:c0:55:55:fa:71:f2:8d:d5:f2:a0:
         84:ad:0b:ae:52:4e:f5:62:52:06:bc:b4:c6:f6:35:75:bf:1a:
         6b:ea:ce:76:ab:9e:53:52:c2:a3:1c:c0:ff:d1:e7:85:23:39:
         35:7e:cb:d6:4e:71:f4:92:a7:1c:85:5f:21:dc:41:30:38:11:
         f1:24:e3:7b:0a:35:d6:5c:29:4a:24:d9:5b:8d:20:01:3b:bd:
         63:3e:33:aa:d3:05:cd:12:38:ce:e1:3e:4d:c5:b1:38:ed:b5:
         ee:8f:39:cc:76:88:45:ba:33:4d:c7:17:91:1b:5d:f9:d2:05:
         76:d8:af:0e:47:df:70:c6:8b:26:4a:a6:86:07:c9:e8:de:5c:
         0f:f9:54:66:43:d4:84:e4:2d:42:d1:33:02:69:9a:49:8c:4a:
         17:30:4d:93:59:57:55:19:29:3e:44:d7:2d:f9:1b:ca:a6:4d:
         1a:59:40:bc:41:94:ac:fa:5c:5f:bf:8d:c4:7a:62:a7:0b:84:
         92:1a:5e:2f:c8:69:04:25:6f:cf:e6:ed:25:26:86:a3:a8:8c:
         e8:13:7d:67:d3:dd:4b:0e:b3:68:f4:7a:45:ce:21:f8:bc:8c:
         2d:7a:9f:d6:fb:38:e6:61:7d:61:dc:e7:de:17:d1:9b:14:fe:
         d1:99:98:79:66:21:63:cf:bd:26:43:b6:1d:12:5c:ab:ab:8b:
         04:47:16:00:0d:b9:45:90:9a:9c:26:1c:3c:32:9e:e5:1a:b9:
         b2:55:c9:0a:d8:c4:a9:7f:57:39:f1:7f:f1:3d:2c:8f:af:27:
         ac:28:3a:ef:7d:84:ac:9d:55:56:7a:ff:cd:18:ce:98:6d:cf:
         88:4e:e3:67:c3:89:c4:54:81:af:e3:81:bc:e5:a2:7d:6b:a0:
         7a:07:7a:39:81:f9:5c:d8:f3:8c:ab:2c:6f:81:f9:d4:ad:ed:
         d4:1f:ff:5c:b5:47:6a:c5:75:3a:29:24:d1:d0:9a:e4:ff:d5:
         b6:49:3d:f2:74:9a:7a:b5:8b:90:55:42:5a:7b:fb:55:0c:49:
         55:84:7c:6a:9f:7c:d9:e7:8e:45:55:d6:b5:b1:92:79:2b:e3:
         65:da:02:19:e7:70:4d:d2:77:a4:ce:f3:bb:fc:ee:bb:4f:23:
         bc:52:8b:3f:61:de:ad:42
-----BEGIN CERTIFICATE-----
MIIHNzCCBR+gAwIBAgIRALo4RjxOTRTJcQHa4hqT2lcwDQYJKoZIhvcNAQELBQAw
OTEMMAoGA1UECgwDU0NMMSkwJwYDVQQDDCBTQ0wgUm9vdCBDZXJ0aWZpY2F0aW9u
IEF1dGhvcml0eTAeFw0xOTEyMTUwMDAwMDBaFw0yOTEyMTcwMDAwMDBaMDkxDDAK
BgNVBAoMA1NDTDEpMCcGA1UEAwwgU0NMIFJvb3QgQ2VydGlmaWNhdGlvbiBBdXRo
b3JpdHkwggIiMA0GCSqGSIb3DQEBAQUAA4ICDwAwggIKAoICAQDTj46glZmNZoK2
l3I2ISyWDEDoodSc7bB4usKgoXdgbIERjeSDMdCN4ME4ipTGdKoAW7VyBBlTKd9s
hQJqs6DQDGyZlB8r50bmu4bj4cuJC9Q+DL2Iz00vCm8mQH+HjVRg2u8iZ+w4kXql
E5ZZLU1J7ohJjggXaN8qCaGjt2FXc5wCP5bzk1auYTV0U3ogWfAVuP8Q0neSBXbx
sGx/5elG+srAYs2OSswek/NYdkUYYkGb36NbedjE37d2BHWlBmEaHxVRwQoHCrHa
h/SFnZjw79b5na2CZ9ycM0BellDA6B9g9RMFCs/Cduf2VnlQFOaU6987zZzn0/Zm
JEXQDBXujsoHVuJX5HmOYDYlKKJVFfFOCKugO67TExCeY/Krwqs3a7xo4cOeuPRm
pHsEDfguY0Obl+hxbBoWGpBgqqaKvHzU0YFPfx1KUHD8u//day0VwezQvRkHdap6
gVSf5qIME2/oLEdOKss5+Uo/nTzlhMeBpVnTW6dCfbfNmo/zgk9bUmA8aEjhmWRq
aXPU5L5vlSqmJBh2yrm79rvYGIEDcOD8wRETYrhLlCFF/7gS581wVkLktJz6oPHT
aJ1+tmB2flIKxdKDRbYez/yIJ1yTasQ16uhFNhpSPAvY3M0nSi7LOYyvHAFxV/Vv
SnGKLMntUUVB0ZzC6/Fh5C85+s0HYwIDAQABo4ICODCCAjQwDwYDVR0TAQH/BAUw
AwEB/zAOBgNVHQ8BAf8EBAMCAQYwgYQGA1UdHgEB/wR6MHigdjAPgg1wbGFmb3Jt
LmxvY2FsMBKCECoucGxhdGZvcm0ubG9jYWwwFIISYWFjLnBsYXRmb3JtLmxvY2Fs
MBWCE25pZmkucGxhdGZvcm0ubG9jYWwwEIEOcGxhdGZvcm0ubG9jYWwwEIEOcGxh
dGZvcm0ubG9jYWwwHQYDVR0OBBYEFBq1DnY2Zpg9WtIueGA34FWAvtL0MDwGA1Ud
EQQ1MDOGGWh0dHA6Ly9jYS5wbGF0Zm9ybS5sb2NhbC+BFmNlcnRtYXN0ZXJAZXhh
bXBsZS5uZXQwHwYDVR0jBBgwFoAUGrUOdjZmmD1a0i54YDfgVYC+0vQwPAYDVR0S
BDUwM4YZaHR0cDovL2NhLnBsYXRmb3JtLmxvY2FsL4EWY2VydG1hc3RlckBleGFt
cGxlLm5ldDBvBggrBgEFBQcBAQRjMGEwXwYIKwYBBQUHMAKGU2h0dHA6Ly9jYS5w
bGF0Zm90bS5sb2NhbC9jZXJ0cy9wbGF0Zm9ybS5sb2NhbF9Sb290X0NlcnRpZmlj
YXRpb25fQXV0aG9yaXR5LmNlcnQucGVtMF0GA1UdHwRWMFQwUqBQoE6GTGh0dHA6
Ly9jYS5wbGF0Zm9ybS5sb2NhbC9jcmwvcGxhdGZvcm0ubG9jYWxfUm9vdF9DZXJ0
aWZpY2F0aW9uX0F1dGhvcml0eS5jcmwwDQYJKoZIhvcNAQELBQADggIBAEYpAImF
SLw8yRe7cxdsj0A4UeNKdJFNLyYMYFkVGXn2U3FtJDx/ABF029D0Uqc8hIQY6Qh9
pwTN/zPsEioPf0q0K8mEx/L7n6XZb4R06MxKwFVV+nHyjdXyoIStC65STvViUga8
tMb2NXW/GmvqznarnlNSwqMcwP/R54UjOTV+y9ZOcfSSpxyFXyHcQTA4EfEk43sK
NdZcKUok2VuNIAE7vWM+M6rTBc0SOM7hPk3FsTjtte6POcx2iEW6M03HF5EbXfnS
BXbYrw5H33DGiyZKpoYHyejeXA/5VGZD1ITkLULRMwJpmkmMShcwTZNZV1UZKT5E
1y35G8qmTRpZQLxBlKz6XF+/jcR6YqcLhJIaXi/IaQQlb8/m7SUmhqOojOgTfWfT
3UsOs2j0ekXOIfi8jC16n9b7OOZhfWHc594X0ZsU/tGZmHlmIWPPvSZDth0SXKur
iwRHFgANuUWQmpwmHDwynuUaubJVyQrYxKl/Vznxf/E9LI+vJ6woOu99hKydVVZ6
/80Yzphtz4hO42fDicRUga/jgbzlon1roHoHejmB+VzY84yrLG+B+dSt7dQf/1y1
R2rFdTopJNHQmuT/1bZJPfJ0mnq1i5BVQlp7+1UMSVWEfGqffNnnjkVV1rWxknkr
42XaAhnncE3Sd6TO87v87rtPI7xSiz9h3q1C
-----END CERTIFICATE-----
